; Function Attrs: mustprogress nofree norecurse nosync nounwind willreturn memory(read, argmem: readwrite, inaccessiblemem: none) uwtable
define hidden void @_ZN3p3pC2EN2cv3MatE(ptr noundef nonnull writeonly align 8 captures(none) dereferenceable(64) initializes((0, 64)) %0, ptr noundef readonly captures(none) %1) unnamed_addr #4 align 2 {
  %3 = load i32, ptr %1, align 8, !tbaa !15
  %4 = and i32 %3, 7
  %5 = icmp eq i32 %4, 5
  %6 = getelementptr inbounds nuw i8, ptr %1, i64 16
  %7 = load ptr, ptr %6, align 8, !tbaa !26
  %8 = getelementptr inbounds nuw i8, ptr %1, i64 72
  %9 = load ptr, ptr %8, align 8, !tbaa !27
  br i1 %5, label %10, label %26

10:                                               ; preds = %2
  %11 = getelementptr inbounds nuw i8, ptr %7, i64 8
  %12 = load float, ptr %11, align 4, !tbaa !28
  %13 = fpext float %12 to double
  %14 = getelementptr inbounds nuw i8, ptr %0, i64 16
  store double %13, ptr %14, align 8, !tbaa !11
  %15 = load i64, ptr %9, align 8, !tbaa !30
  %16 = getelementptr inbounds nuw i8, ptr %7, i64 %15
  %17 = getelementptr inbounds nuw i8, ptr %16, i64 8
  %18 = load float, ptr %17, align 4, !tbaa !28
  %19 = fpext float %18 to double
  %20 = getelementptr inbounds nuw i8, ptr %0, i64 24
  store double %19, ptr %20, align 8, !tbaa !13
  %21 = load float, ptr %7, align 4, !tbaa !28
  %22 = fpext float %21 to double
  store double %22, ptr %0, align 8, !tbaa !3
  %23 = getelementptr inbounds nuw i8, ptr %16, i64 4
  %24 = load float, ptr %23, align 4, !tbaa !28
  %25 = fpext float %24 to double
  br label %38

26:                                               ; preds = %2
  %27 = getelementptr inbounds nuw i8, ptr %7, i64 16
  %28 = load double, ptr %27, align 8, !tbaa !32
  %29 = getelementptr inbounds nuw i8, ptr %0, i64 16
  store double %28, ptr %29, align 8, !tbaa !11
  %30 = load i64, ptr %9, align 8, !tbaa !30
  %31 = getelementptr inbounds nuw i8, ptr %7, i64 %30
  %32 = getelementptr inbounds nuw i8, ptr %31, i64 16
  %33 = load double, ptr %32, align 8, !tbaa !32
  %34 = getelementptr inbounds nuw i8, ptr %0, i64 24
  store double %33, ptr %34, align 8, !tbaa !13
  %35 = load double, ptr %7, align 8, !tbaa !32
  store double %35, ptr %0, align 8, !tbaa !3
  %36 = getelementptr inbounds nuw i8, ptr %31, i64 8
  %37 = load double, ptr %36, align 8, !tbaa !32
  br label %38

38:                                               ; preds = %26, %10
  %39 = phi double [ %19, %10 ], [ %33, %26 ]
  %40 = phi double [ %13, %10 ], [ %28, %26 ]
  %41 = phi double [ %22, %10 ], [ %35, %26 ]
  %.sink = phi double [ %25, %10 ], [ %37, %26 ]
  %42 = getelementptr inbounds nuw i8, ptr %0, i64 8
  store double %.sink, ptr %42, align 8, !tbaa !9
  %43 = fdiv double 1.000000e+00, %41
  %44 = getelementptr inbounds nuw i8, ptr %0, i64 32
  store double %43, ptr %44, align 8, !tbaa !8
  %45 = fdiv double 1.000000e+00, %.sink
  %46 = getelementptr inbounds nuw i8, ptr %0, i64 40
  store double %45, ptr %46, align 8, !tbaa !10
  %47 = fdiv double %40, %41
  %48 = getelementptr inbounds nuw i8, ptr %0, i64 48
  store double %47, ptr %48, align 8, !tbaa !12
  %49 = fdiv double %39, %.sink
  %50 = getelementptr inbounds nuw i8, ptr %0, i64 56
  store double %49, ptr %50, align 8, !tbaa !14
  ret void
}